target datalayout = "e-m:e-p270:32:32-p271:32:32-p272:64:64-i64:64-i128:128-f80:128-n8:16:32:64-S128"
target triple = "x86_64-pc-linux-gnu"

%class.mpz_matrix_manager = type { ptr, ptr }
%class.mpz_matrix = type { i32, i32, ptr }
%class.mpz = type { i32, i8, ptr }

; Function Attrs: mustprogress uwtable
define linkonce_odr hidden void @_ZN11mpz_managerILb0EE3delER3mpz(ptr noundef nonnull align 8 dereferenceable(600) %0, ptr noundef nonnull align 8 dereferenceable(16) %1) #5 comdat align 2 {
  %3 = alloca ptr, align 8
  %4 = alloca ptr, align 8
  store ptr %0, ptr %3, align 8, !tbaa !8
  store ptr %1, ptr %4, align 8, !tbaa !27
  %5 = load ptr, ptr %3, align 8
  %6 = load ptr, ptr %4, align 8, !tbaa !27
  call void @_ZN11mpz_managerILb0EE3delEPS0_R3mpz(ptr noundef %5, ptr noundef nonnull align 8 dereferenceable(16) %6)
  ret void
}

; Function Attrs: mustprogress nounwind uwtable
define linkonce_odr hidden noundef nonnull align 8 dereferenceable(16) ptr @_ZN10mpz_matrixclEjj(ptr noundef nonnull align 8 dereferenceable(16) %0, i32 noundef %1, i32 noundef %2) #4 comdat align 2 {
  %4 = alloca ptr, align 8
  %5 = alloca i32, align 4
  %6 = alloca i32, align 4
  store ptr %0, ptr %4, align 8, !tbaa !14
  store i32 %1, ptr %5, align 4, !tbaa !12
  store i32 %2, ptr %6, align 4, !tbaa !12
  %7 = load ptr, ptr %4, align 8
  %8 = getelementptr inbounds nuw %class.mpz_matrix, ptr %7, i32 0, i32 2
  %9 = load ptr, ptr %8, align 8, !tbaa !23
  %10 = load i32, ptr %5, align 4, !tbaa !12
  %11 = getelementptr inbounds nuw %class.mpz_matrix, ptr %7, i32 0, i32 1
  %12 = load i32, ptr %11, align 4, !tbaa !19
  %13 = mul i32 %10, %12
  %14 = load i32, ptr %6, align 4, !tbaa !12
  %15 = add i32 %13, %14
  %16 = zext i32 %15 to i64
  %17 = getelementptr inbounds nuw %class.mpz, ptr %9, i64 %16
  ret ptr %17
}

; Function Attrs: mustprogress nounwind uwtable
define linkonce_odr hidden noundef nonnull align 8 dereferenceable(600) ptr @_ZNK18mpz_matrix_manager2nmEv(ptr noundef nonnull align 8 dereferenceable(16) %0) #4 comdat align 2 {
  %2 = alloca ptr, align 8
  store ptr %0, ptr %2, align 8, !tbaa !3
  %3 = load ptr, ptr %2, align 8
  %4 = getelementptr inbounds nuw %class.mpz_matrix_manager, ptr %3, i32 0, i32 0
  %5 = load ptr, ptr %4, align 8, !tbaa !32
  ret ptr %5
}

; Function Attrs: mustprogress nounwind uwtable
define linkonce_odr hidden void @_ZN3mpzC2Ev(ptr noundef nonnull align 8 dereferenceable(16) %0) unnamed_addr #4 comdat align 2 {
  %2 = alloca ptr, align 8
  store ptr %0, ptr %2, align 8, !tbaa !27
  %3 = load ptr, ptr %2, align 8
  %4 = getelementptr inbounds nuw %class.mpz, ptr %3, i32 0, i32 0
  store i32 0, ptr %4, align 8, !tbaa !28
  %5 = getelementptr inbounds nuw %class.mpz, ptr %3, i32 0, i32 1
  %6 = load i8, ptr %5, align 4
  %7 = and i8 %6, -2
  %8 = or i8 %7, 0
  store i8 %8, ptr %5, align 4
  %9 = getelementptr inbounds nuw %class.mpz, ptr %3, i32 0, i32 1
  %10 = load i8, ptr %9, align 4
  %11 = and i8 %10, -3
  %12 = or i8 %11, 0
  store i8 %12, ptr %9, align 4
  %13 = getelementptr inbounds nuw %class.mpz, ptr %3, i32 0, i32 2
  store ptr null, ptr %13, align 8, !tbaa !31
  ret void
}

; Function Attrs: mustprogress uwtable
define hidden void @_ZN18mpz_matrix_manager3delER10mpz_matrix(ptr noundef nonnull align 8 dereferenceable(16) %0, ptr noundef nonnull align 8 dereferenceable(16) %1) #5 align 2 {
  %3 = alloca ptr, align 8
  %4 = alloca ptr, align 8
  %5 = alloca i32, align 4
  %6 = alloca i32, align 4
  %7 = alloca i32, align 4
  %8 = alloca i32, align 4
  store ptr %0, ptr %3, align 8, !tbaa !3
  store ptr %1, ptr %4, align 8, !tbaa !14
  %9 = load ptr, ptr %3, align 8
  %10 = load ptr, ptr %4, align 8, !tbaa !14
  %11 = getelementptr inbounds nuw %class.mpz_matrix, ptr %10, i32 0, i32 2
  %12 = load ptr, ptr %11, align 8, !tbaa !23
  %13 = icmp ne ptr %12, null
  br i1 %13, label %14, label %68

14:                                               ; preds = %2
  call void @llvm.lifetime.start.p0(i64 4, ptr %5) #3
  store i32 0, ptr %5, align 4, !tbaa !12
  br label %15

15:                                               ; preds = %40, %14
  %16 = load i32, ptr %5, align 4, !tbaa !12
  %17 = load ptr, ptr %4, align 8, !tbaa !14
  %18 = getelementptr inbounds nuw %class.mpz_matrix, ptr %17, i32 0, i32 0
  %19 = load i32, ptr %18, align 8, !tbaa !16
  %20 = icmp ult i32 %16, %19
  br i1 %20, label %22, label %21

21:                                               ; preds = %15
  store i32 2, ptr %6, align 4
  call void @llvm.lifetime.end.p0(i64 4, ptr %5) #3
  br label %43

22:                                               ; preds = %15
  call void @llvm.lifetime.start.p0(i64 4, ptr %7) #3
  store i32 0, ptr %7, align 4, !tbaa !12
  br label %23

23:                                               ; preds = %36, %22
  %24 = load i32, ptr %7, align 4, !tbaa !12
  %25 = load ptr, ptr %4, align 8, !tbaa !14
  %26 = getelementptr inbounds nuw %class.mpz_matrix, ptr %25, i32 0, i32 1
  %27 = load i32, ptr %26, align 4, !tbaa !19
  %28 = icmp ult i32 %24, %27
  br i1 %28, label %30, label %29

29:                                               ; preds = %23
  store i32 5, ptr %6, align 4
  call void @llvm.lifetime.end.p0(i64 4, ptr %7) #3
  br label %39

30:                                               ; preds = %23
  %31 = call noundef nonnull align 8 dereferenceable(600) ptr @_ZNK18mpz_matrix_manager2nmEv(ptr noundef nonnull align 8 dereferenceable(16) %9)
  %32 = load ptr, ptr %4, align 8, !tbaa !14
  %33 = load i32, ptr %5, align 4, !tbaa !12
  %34 = load i32, ptr %7, align 4, !tbaa !12
  %35 = call noundef nonnull align 8 dereferenceable(16) ptr @_ZN10mpz_matrixclEjj(ptr noundef nonnull align 8 dereferenceable(16) %32, i32 noundef %33, i32 noundef %34)
  call void @_ZN11mpz_managerILb0EE3delER3mpz(ptr noundef nonnull align 8 dereferenceable(600) %31, ptr noundef nonnull align 8 dereferenceable(16) %35)
  br label %36

36:                                               ; preds = %30
  %37 = load i32, ptr %7, align 4, !tbaa !12
  %38 = add i32 %37, 1
  store i32 %38, ptr %7, align 4, !tbaa !12
  br label %23, !llvm.loop !24

39:                                               ; preds = %29
  br label %40

40:                                               ; preds = %39
  %41 = load i32, ptr %5, align 4, !tbaa !12
  %42 = add i32 %41, 1
  store i32 %42, ptr %5, align 4, !tbaa !12
  br label %15, !llvm.loop !26

43:                                               ; preds = %21
  call void @llvm.lifetime.start.p0(i64 4, ptr %8) #3
  %44 = load ptr, ptr %4, align 8, !tbaa !14
  %45 = getelementptr inbounds nuw %class.mpz_matrix, ptr %44, i32 0, i32 0
  %46 = load i32, ptr %45, align 8, !tbaa !16
  %47 = zext i32 %46 to i64
  %48 = mul i64 16, %47
  %49 = load ptr, ptr %4, align 8, !tbaa !14
  %50 = getelementptr inbounds nuw %class.mpz_matrix, ptr %49, i32 0, i32 1
  %51 = load i32, ptr %50, align 4, !tbaa !19
  %52 = zext i32 %51 to i64
  %53 = mul i64 %48, %52
  %54 = trunc i64 %53 to i32
  store i32 %54, ptr %8, align 4, !tbaa !12
  %55 = getelementptr inbounds nuw %class.mpz_matrix_manager, ptr %9, i32 0, i32 1
  %56 = load ptr, ptr %55, align 8, !tbaa !20
  %57 = load i32, ptr %8, align 4, !tbaa !12
  %58 = zext i32 %57 to i64
  %59 = load ptr, ptr %4, align 8, !tbaa !14
  %60 = getelementptr inbounds nuw %class.mpz_matrix, ptr %59, i32 0, i32 2
  %61 = load ptr, ptr %60, align 8, !tbaa !23
  call void @_ZN22small_object_allocator10deallocateEmPv(ptr noundef nonnull align 8 dereferenceable(520) %56, i64 noundef %58, ptr noundef %61)
  %62 = load ptr, ptr %4, align 8, !tbaa !14
  %63 = getelementptr inbounds nuw %class.mpz_matrix, ptr %62, i32 0, i32 0
  store i32 0, ptr %63, align 8, !tbaa !16
  %64 = load ptr, ptr %4, align 8, !tbaa !14
  %65 = getelementptr inbounds nuw %class.mpz_matrix, ptr %64, i32 0, i32 1
  store i32 0, ptr %65, align 4, !tbaa !19
  %66 = load ptr, ptr %4, align 8, !tbaa !14
  %67 = getelementptr inbounds nuw %class.mpz_matrix, ptr %66, i32 0, i32 2
  store ptr null, ptr %67, align 8, !tbaa !23
  call void @llvm.lifetime.end.p0(i64 4, ptr %8) #3
  br label %68

68:                                               ; preds = %43, %2
  ret void
}

; Function Attrs: mustprogress uwtable
define hidden void @_ZN18mpz_matrix_manager2mkEjjR10mpz_matrix(ptr noundef nonnull align 8 dereferenceable(16) %0, i32 noundef %1, i32 noundef %2, ptr noundef nonnull align 8 dereferenceable(16) %3) #5 align 2 {
  %5 = alloca ptr, align 8
  %6 = alloca i32, align 4
  %7 = alloca i32, align 4
  %8 = alloca ptr, align 8
  %9 = alloca ptr, align 8
  store ptr %0, ptr %5, align 8, !tbaa !3
  store i32 %1, ptr %6, align 4, !tbaa !12
  store i32 %2, ptr %7, align 4, !tbaa !12
  store ptr %3, ptr %8, align 8, !tbaa !14
  %10 = load ptr, ptr %5, align 8
  %11 = load ptr, ptr %8, align 8, !tbaa !14
  call void @_ZN18mpz_matrix_manager3delER10mpz_matrix(ptr noundef nonnull align 8 dereferenceable(16) %10, ptr noundef nonnull align 8 dereferenceable(16) %11)
  %12 = load i32, ptr %6, align 4, !tbaa !12
  %13 = load ptr, ptr %8, align 8, !tbaa !14
  %14 = getelementptr inbounds nuw %class.mpz_matrix, ptr %13, i32 0, i32 0
  store i32 %12, ptr %14, align 8, !tbaa !16
  %15 = load i32, ptr %7, align 4, !tbaa !12
  %16 = load ptr, ptr %8, align 8, !tbaa !14
  %17 = getelementptr inbounds nuw %class.mpz_matrix, ptr %16, i32 0, i32 1
  store i32 %15, ptr %17, align 4, !tbaa !19
  call void @llvm.lifetime.start.p0(i64 8, ptr %9) #3
  %18 = getelementptr inbounds nuw %class.mpz_matrix_manager, ptr %10, i32 0, i32 1
  %19 = load ptr, ptr %18, align 8, !tbaa !20
  %20 = load i32, ptr %6, align 4, !tbaa !12
  %21 = zext i32 %20 to i64
  %22 = mul i64 16, %21
  %23 = load i32, ptr %7, align 4, !tbaa !12
  %24 = zext i32 %23 to i64
  %25 = mul i64 %22, %24
  %26 = call noundef ptr @_ZN22small_object_allocator8allocateEm(ptr noundef nonnull align 8 dereferenceable(520) %19, i64 noundef %25)
  store ptr %26, ptr %9, align 8, !tbaa !22
  %27 = load i32, ptr %6, align 4, !tbaa !12
  %28 = load i32, ptr %7, align 4, !tbaa !12
  %29 = mul i32 %27, %28
  %30 = zext i32 %29 to i64
  %31 = load ptr, ptr %9, align 8, !tbaa !22
  %32 = icmp eq i64 %30, 0
  br i1 %32, label %39, label %33

33:                                               ; preds = %4
  %34 = getelementptr inbounds %class.mpz, ptr %31, i64 %30
  br label %35

35:                                               ; preds = %35, %33
  %36 = phi ptr [ %31, %33 ], [ %37, %35 ]
  call void @_ZN3mpzC2Ev(ptr noundef nonnull align 8 dereferenceable(16) %36)
  %37 = getelementptr inbounds %class.mpz, ptr %36, i64 1
  %38 = icmp eq ptr %37, %34
  br i1 %38, label %39, label %35

39:                                               ; preds = %4, %35
  %40 = load ptr, ptr %8, align 8, !tbaa !14
  %41 = getelementptr inbounds nuw %class.mpz_matrix, ptr %40, i32 0, i32 2
  store ptr %31, ptr %41, align 8, !tbaa !23
  call void @llvm.lifetime.end.p0(i64 8, ptr %9) #3
  ret void
}