; Function Attrs: mustprogress uwtable
define hidden void @_ZN18mpz_matrix_manager2mkEjjR10mpz_matrix(ptr noundef nonnull readonly align 8 captures(none) dereferenceable(16) %0, i32 noundef %1, i32 noundef %2, ptr noundef nonnull align 8 captures(none) dereferenceable(16) %3) local_unnamed_addr #4 align 2 {
  %5 = getelementptr inbounds nuw i8, ptr %3, i64 8
  %6 = load ptr, ptr %5, align 8, !tbaa !10
  %.not.i = icmp eq ptr %6, null
  br i1 %.not.i, label %_ZN18mpz_matrix_manager3delER10mpz_matrix.exit, label %.preheader19.i

.preheader19.i:                                   ; preds = %4
  %7 = load i32, ptr %3, align 8, !tbaa !14
  %.not23.i = icmp eq i32 %7, 0
  %.phi.trans.insert.i = getelementptr inbounds nuw i8, ptr %3, i64 4
  %.pre28.i = load i32, ptr %.phi.trans.insert.i, align 4, !tbaa !15
  br i1 %.not23.i, label %._crit_edge22.i, label %.preheader.lr.ph.i

.preheader.lr.ph.i:                               ; preds = %.preheader19.i
  %.not24.i = icmp eq i32 %.pre28.i, 0
  br i1 %.not24.i, label %._crit_edge22.i, label %.preheader.i

.preheader.i:                                     ; preds = %.preheader.lr.ph.i, %._crit_edge.i
  %8 = phi i32 [ %19, %._crit_edge.i ], [ %.pre28.i, %.preheader.lr.ph.i ]
  %9 = phi i32 [ %20, %._crit_edge.i ], [ %7, %.preheader.lr.ph.i ]
  %10 = phi i32 [ %21, %._crit_edge.i ], [ %.pre28.i, %.preheader.lr.ph.i ]
  %.021.i = phi i32 [ %22, %._crit_edge.i ], [ 0, %.preheader.lr.ph.i ]
  %.not25.i = icmp eq i32 %10, 0
  br i1 %.not25.i, label %._crit_edge.i, label %.lr.ph.i

._crit_edge22.loopexit26.i:                       ; preds = %._crit_edge.i
  %.pre29.i = load ptr, ptr %5, align 8, !tbaa !10
  br label %._crit_edge22.i

._crit_edge22.i:                                  ; preds = %._crit_edge22.loopexit26.i, %.preheader.lr.ph.i, %.preheader19.i
  %11 = phi ptr [ %.pre29.i, %._crit_edge22.loopexit26.i ], [ %6, %.preheader.lr.ph.i ], [ %6, %.preheader19.i ]
  %12 = phi i32 [ %19, %._crit_edge22.loopexit26.i ], [ 0, %.preheader.lr.ph.i ], [ %.pre28.i, %.preheader19.i ]
  %.lcssa.i = phi i32 [ %20, %._crit_edge22.loopexit26.i ], [ %7, %.preheader.lr.ph.i ], [ 0, %.preheader19.i ]
  %13 = shl i32 %12, 4
  %14 = mul i32 %13, %.lcssa.i
  %15 = getelementptr inbounds nuw i8, ptr %0, i64 8
  %16 = load ptr, ptr %15, align 8, !tbaa !16
  %17 = zext i32 %14 to i64
  tail call void @_ZN22small_object_allocator10deallocateEmPv(ptr noundef nonnull align 8 dereferenceable(520) %16, i64 noundef %17, ptr noundef %11)
  %18 = getelementptr inbounds nuw i8, ptr %3, i64 8
  store i64 0, ptr %18, align 8
  br label %_ZN18mpz_matrix_manager3delER10mpz_matrix.exit

._crit_edge.loopexit.i:                           ; preds = %.lr.ph.i
  %.pre.i = load i32, ptr %3, align 8, !tbaa !14
  br label %._crit_edge.i

._crit_edge.i:                                    ; preds = %._crit_edge.loopexit.i, %.preheader.i
  %19 = phi i32 [ %32, %._crit_edge.loopexit.i ], [ %8, %.preheader.i ]
  %20 = phi i32 [ %.pre.i, %._crit_edge.loopexit.i ], [ %9, %.preheader.i ]
  %21 = phi i32 [ %32, %._crit_edge.loopexit.i ], [ 0, %.preheader.i ]
  %22 = add nuw i32 %.021.i, 1
  %23 = icmp ult i32 %22, %20
  br i1 %23, label %.preheader.i, label %._crit_edge22.loopexit26.i, !llvm.loop !18

.lr.ph.i:                                         ; preds = %.preheader.i, %.lr.ph.i
  %24 = phi i32 [ %32, %.lr.ph.i ], [ %10, %.preheader.i ]
  %.01720.i = phi i32 [ %31, %.lr.ph.i ], [ 0, %.preheader.i ]
  %25 = load ptr, ptr %0, align 8, !tbaa !21
  %26 = load ptr, ptr %5, align 8, !tbaa !10
  %27 = mul i32 %24, %.021.i
  %28 = add i32 %27, %.01720.i
  %29 = zext i32 %28 to i64
  %30 = getelementptr inbounds nuw %class.mpz, ptr %26, i64 %29
  tail call void @_ZN11mpz_managerILb0EE3delEPS0_R3mpz(ptr noundef nonnull align 8 dereferenceable(600) %25, ptr noundef nonnull align 8 dereferenceable(16) %30)
  %31 = add nuw i32 %.01720.i, 1
  %32 = load i32, ptr %.phi.trans.insert.i, align 4, !tbaa !15
  %33 = icmp ult i32 %31, %32
  br i1 %33, label %.lr.ph.i, label %._crit_edge.loopexit.i, !llvm.loop !22

_ZN18mpz_matrix_manager3delER10mpz_matrix.exit:   ; preds = %4, %._crit_edge22.i
  store i32 %1, ptr %3, align 8, !tbaa !14
  %34 = getelementptr inbounds nuw i8, ptr %3, i64 4
  store i32 %2, ptr %34, align 4, !tbaa !15
  %35 = getelementptr inbounds nuw i8, ptr %0, i64 8
  %36 = load ptr, ptr %35, align 8, !tbaa !16
  %37 = zext i32 %1 to i64
  %38 = shl nuw nsw i64 %37, 4
  %39 = zext i32 %2 to i64
  %40 = mul i64 %38, %39
  %41 = tail call noundef ptr @_ZN22small_object_allocator8allocateEm(ptr noundef nonnull align 8 dereferenceable(520) %36, i64 noundef %40)
  %42 = mul i32 %2, %1
  %43 = icmp eq i32 %42, 0
  br i1 %43, label %.loopexit, label %44

44:                                               ; preds = %_ZN18mpz_matrix_manager3delER10mpz_matrix.exit
  %45 = zext i32 %42 to i64
  %46 = getelementptr inbounds nuw %class.mpz, ptr %41, i64 %45
  br label %47

47:                                               ; preds = %47, %44
  %48 = phi ptr [ %41, %44 ], [ %53, %47 ]
  store i32 0, ptr %48, align 8, !tbaa !23
  %49 = getelementptr inbounds nuw i8, ptr %48, i64 4
  %50 = load i8, ptr %49, align 4
  %51 = and i8 %50, -4
  store i8 %51, ptr %49, align 4
  %52 = getelementptr inbounds nuw i8, ptr %48, i64 8
  store ptr null, ptr %52, align 8, !tbaa !26
  %53 = getelementptr inbounds nuw i8, ptr %48, i64 16
  %54 = icmp eq ptr %53, %46
  br i1 %54, label %.loopexit, label %47

.loopexit:                                        ; preds = %47, %_ZN18mpz_matrix_manager3delER10mpz_matrix.exit
  store ptr %41, ptr %5, align 8, !tbaa !10
  ret void
}